target datalayout = "e-m:e-p270:32:32-p271:32:32-p272:64:64-i64:64-i128:128-f80:128-n8:16:32:64-S128"
target triple = "x86_64-unknown-linux-gnu"

%struct.VirtIOSCSICommon = type { %struct.VirtIODevice, %struct.VirtIOSCSIConf, i32, i32, ptr, ptr, ptr }
%struct.VirtIODevice = type { %struct.DeviceState, ptr, i8, i8, i16, i64, i64, i64, i64, ptr, i16, i32, i32, ptr, %struct.MemoryListener, i16, i8, i8, i8, i8, i8, i8, i8, i8, i8, ptr, ptr, i8, i8, ptr, ptr, %union.anon.1, %struct.EventNotifier, i8 }
%struct.DeviceState = type { %struct.Object, ptr, ptr, i8, i8, i64, ptr, i32, i8, ptr, %struct.NamedGPIOListHead, %struct.NamedClockListHead, %struct.BusStateHead, i32, i32, i32, %struct.ResettableState, ptr, %struct.MemReentrancyGuard }
%struct.Object = type { ptr, ptr, ptr, i32, ptr }
%struct.NamedGPIOListHead = type { ptr }
%struct.NamedClockListHead = type { ptr }
%struct.BusStateHead = type { ptr }
%struct.ResettableState = type { i32, i8, i8 }
%struct.MemReentrancyGuard = type { i8 }
%struct.MemoryListener = type { ptr, ptr, ptr, ptr, ptr, ptr, ptr, ptr, ptr, ptr, ptr, ptr, ptr, ptr, ptr, ptr, ptr, i32, ptr, ptr, %union.anon, %union.anon.0 }
%union.anon = type { %struct.QTailQLink }
%struct.QTailQLink = type { ptr, ptr }
%union.anon.0 = type { %struct.QTailQLink }
%union.anon.1 = type { %struct.QTailQLink }
%struct.EventNotifier = type { i32, i32, i8 }
%struct.VirtIOSCSIConf = type { i32, i32, i8, i32, i32, ptr, ptr, %struct.CharBackend, i32, ptr }
%struct.CharBackend = type { ptr, ptr, ptr, ptr, ptr, ptr, i32, i32 }
%struct.virtio_scsi_config = type { i32, i32, i32, i32, i32, i32, i32, i16, i16, i32 }

@.str.5 = private unnamed_addr constant [19 x i8] c"virtio-scsi-common\00", align 1
@.str.6 = private unnamed_addr constant [110 x i8] c"/home/dtcxzyw/WorkSpace/Projects/compilers/llvm-opt-benchmark/bench/qemu/qemu/include/hw/virtio/virtio-scsi.h\00", align 1
@__func__.VIRTIO_SCSI_COMMON = private unnamed_addr constant [19 x i8] c"VIRTIO_SCSI_COMMON\00", align 1
@.str.53 = private unnamed_addr constant [52 x i8] c"bad data written to virtio-scsi configuration space\00", align 1

; Function Attrs: nounwind sspstrong uwtable
define internal i32 @ldl_he_p(ptr noundef %ptr) #0 {
entry:
  %ptr.addr = alloca ptr, align 8
  %r = alloca i32, align 4
  store ptr %ptr, ptr %ptr.addr, align 8
  %0 = load ptr, ptr %ptr.addr, align 8
  call void @llvm.memcpy.p0.p0.i64(ptr align 4 %r, ptr align 1 %0, i64 4, i1 false)
  %1 = load i32, ptr %r, align 4
  ret i32 %1
}

; Function Attrs: nounwind sspstrong uwtable
define internal i32 @ldl_le_p(ptr noundef %ptr) #0 {
entry:
  %ptr.addr = alloca ptr, align 8
  store ptr %ptr, ptr %ptr.addr, align 8
  %0 = load ptr, ptr %ptr.addr, align 8
  %call = call i32 @ldl_he_p(ptr noundef %0)
  ret i32 %call
}

; Function Attrs: nounwind sspstrong uwtable
define internal i32 @ldl_be_p(ptr noundef %ptr) #0 {
entry:
  %ptr.addr = alloca ptr, align 8
  store ptr %ptr, ptr %ptr.addr, align 8
  %0 = load ptr, ptr %ptr.addr, align 8
  %call = call i32 @ldl_he_p(ptr noundef %0)
  %1 = call i32 @llvm.bswap.i32(i32 %call)
  ret i32 %1
}

; Function Attrs: nounwind sspstrong uwtable
define internal zeroext i1 @virtio_access_is_big_endian(ptr noundef %vdev) #0 {
entry:
  %vdev.addr = alloca ptr, align 8
  store ptr %vdev, ptr %vdev.addr, align 8
  ret i1 false
}

; Function Attrs: nounwind sspstrong uwtable
define internal i32 @virtio_ldl_p(ptr noundef %vdev, ptr noundef %ptr) #0 {
entry:
  %retval = alloca i32, align 4
  %vdev.addr = alloca ptr, align 8
  %ptr.addr = alloca ptr, align 8
  store ptr %vdev, ptr %vdev.addr, align 8
  store ptr %ptr, ptr %ptr.addr, align 8
  %0 = load ptr, ptr %vdev.addr, align 8
  %call = call zeroext i1 @virtio_access_is_big_endian(ptr noundef %0)
  br i1 %call, label %if.then, label %if.else

if.then:                                          ; preds = %entry
  %1 = load ptr, ptr %ptr.addr, align 8
  %call1 = call i32 @ldl_be_p(ptr noundef %1)
  store i32 %call1, ptr %retval, align 4
  br label %return

if.else:                                          ; preds = %entry
  %2 = load ptr, ptr %ptr.addr, align 8
  %call2 = call i32 @ldl_le_p(ptr noundef %2)
  store i32 %call2, ptr %retval, align 4
  br label %return

return:                                           ; preds = %if.else, %if.then
  %3 = load i32, ptr %retval, align 4
  ret i32 %3
}

; Function Attrs: nounwind sspstrong uwtable
define internal ptr @VIRTIO_SCSI_COMMON(ptr noundef %obj) #0 {
entry:
  %obj.addr = alloca ptr, align 8
  store ptr %obj, ptr %obj.addr, align 8
  %0 = load ptr, ptr %obj.addr, align 8
  %call = call ptr @object_dynamic_cast_assert(ptr noundef %0, ptr noundef @.str.5, ptr noundef @.str.6, i32 noundef 28, ptr noundef @__func__.VIRTIO_SCSI_COMMON)
  ret ptr %call
}

; Function Attrs: nounwind sspstrong uwtable
define internal void @virtio_scsi_set_config(ptr noundef %vdev, ptr noundef %config) #0 {
entry:
  %vdev.addr = alloca ptr, align 8
  %config.addr = alloca ptr, align 8
  %scsiconf = alloca ptr, align 8
  %vs = alloca ptr, align 8
  store ptr %vdev, ptr %vdev.addr, align 8
  store ptr %config, ptr %config.addr, align 8
  %0 = load ptr, ptr %config.addr, align 8
  store ptr %0, ptr %scsiconf, align 8
  %1 = load ptr, ptr %vdev.addr, align 8
  %call = call ptr @VIRTIO_SCSI_COMMON(ptr noundef %1)
  store ptr %call, ptr %vs, align 8
  %2 = load ptr, ptr %vdev.addr, align 8
  %3 = load ptr, ptr %scsiconf, align 8
  %sense_size = getelementptr inbounds %struct.virtio_scsi_config, ptr %3, i32 0, i32 5
  %call1 = call i32 @virtio_ldl_p(ptr noundef %2, ptr noundef %sense_size)
  %cmp = icmp uge i32 %call1, 65536
  br i1 %cmp, label %if.then, label %lor.lhs.false

lor.lhs.false:                                    ; preds = %entry
  %4 = load ptr, ptr %vdev.addr, align 8
  %5 = load ptr, ptr %scsiconf, align 8
  %cdb_size = getelementptr inbounds %struct.virtio_scsi_config, ptr %5, i32 0, i32 6
  %call2 = call i32 @virtio_ldl_p(ptr noundef %4, ptr noundef %cdb_size)
  %cmp3 = icmp uge i32 %call2, 256
  br i1 %cmp3, label %if.then, label %if.end

if.then:                                          ; preds = %lor.lhs.false, %entry
  %6 = load ptr, ptr %vdev.addr, align 8
  call void (ptr, ptr, ...) @virtio_error(ptr noundef %6, ptr noundef @.str.53)
  br label %return

if.end:                                           ; preds = %lor.lhs.false
  %7 = load ptr, ptr %vdev.addr, align 8
  %8 = load ptr, ptr %scsiconf, align 8
  %sense_size4 = getelementptr inbounds %struct.virtio_scsi_config, ptr %8, i32 0, i32 5
  %call5 = call i32 @virtio_ldl_p(ptr noundef %7, ptr noundef %sense_size4)
  %9 = load ptr, ptr %vs, align 8
  %sense_size6 = getelementptr inbounds %struct.VirtIOSCSICommon, ptr %9, i32 0, i32 2
  store i32 %call5, ptr %sense_size6, align 8
  %10 = load ptr, ptr %vdev.addr, align 8
  %11 = load ptr, ptr %scsiconf, align 8
  %cdb_size7 = getelementptr inbounds %struct.virtio_scsi_config, ptr %11, i32 0, i32 6
  %call8 = call i32 @virtio_ldl_p(ptr noundef %10, ptr noundef %cdb_size7)
  %12 = load ptr, ptr %vs, align 8
  %cdb_size9 = getelementptr inbounds %struct.VirtIOSCSICommon, ptr %12, i32 0, i32 3
  store i32 %call8, ptr %cdb_size9, align 4
  br label %return

return:                                           ; preds = %if.end, %if.then
  ret void
}