; Function Attrs: nounwind sspstrong uwtable
define internal void @virtio_scsi_set_config(ptr noundef %vdev, ptr noundef readonly captures(none) %config) #0 {
entry:
  %call.i = tail call ptr @object_dynamic_cast_assert(ptr noundef %vdev, ptr noundef nonnull @.str.5, ptr noundef nonnull @.str.6, i32 noundef 28, ptr noundef nonnull @__func__.VIRTIO_SCSI_COMMON) #13
  %sense_size = getelementptr inbounds nuw i8, ptr %config, i64 20
  %sense_size.val = load i32, ptr %sense_size, align 1
  %cmp = icmp ugt i32 %sense_size.val, 65535
  br i1 %cmp, label %if.then, label %lor.lhs.false

lor.lhs.false:                                    ; preds = %entry
  %cdb_size = getelementptr inbounds nuw i8, ptr %config, i64 24
  %cdb_size.val = load i32, ptr %cdb_size, align 1
  %cmp3 = icmp ugt i32 %cdb_size.val, 255
  br i1 %cmp3, label %if.then, label %if.end

if.then:                                          ; preds = %lor.lhs.false, %entry
  tail call void (ptr, ptr, ...) @virtio_error(ptr noundef %vdev, ptr noundef nonnull @.str.53) #13
  br label %return

if.end:                                           ; preds = %lor.lhs.false
  %sense_size6 = getelementptr inbounds nuw i8, ptr %call.i, i64 632
  store i32 %sense_size.val, ptr %sense_size6, align 8
  %cdb_size.val11 = load i32, ptr %cdb_size, align 1
  %cdb_size9 = getelementptr inbounds nuw i8, ptr %call.i, i64 636
  store i32 %cdb_size.val11, ptr %cdb_size9, align 4
  br label %return

return:                                           ; preds = %if.end, %if.then
  ret void
}